Certificate:
    Data:
        Version: 3 (0x2)
        Serial Number: 0 (0x0)
    Signature Algorithm: sha256WithRSAEncryption
        Issuer: C=CN, O=Kox Inc., CN=Kox Global CA
        Validity
            Not Before: Sep  2 11:56:51 2017 GMT
            Not After : Aug 31 11:56:51 2027 GMT
        Subject: C=CN, O=Kox Inc., CN=*.example.com
        Subject Public Key Info:
            Public Key Algorithm: rsaEncryption
                Public-Key: (2048 bit)
                Modulus:
                    00:9e:5c:6e:34:83:71:8f:72:e9:ec:2f:2f:2b:5c:
                    98:a9:e6:21:77:2a:76:90:9c:60:f5:f8:9a:c3:19:
                    40:e0:ca:43:1e:ad:0a:fd:0c:37:be:ab:50:cb:02:
                    66:6d:6b:a0:6a:0b:01:20:ae:9c:53:db:2e:d4:3b:
                    a6:b7:e4:f1:39:31:d3:a5:7e:06:63:c0:45:25:94:
                    4e:77:8f:86:8a:13:0f:a0:b2:fc:4e:c4:ae:e5:6f:
                    6e:c7:4f:2d:eb:00:47:45:4c:19:02:2f:0f:06:b0:
                    4f:79:64:8a:83:b2:d4:33:ec:63:7b:82:21:12:09:
                    97:44:89:42:93:96:0d:d7:1a:01:b2:99:cc:5a:b9:
                    28:be:80:d9:d3:c4:bd:52:af:d3:db:24:cf:28:09:
                    92:73:8f:41:3b:48:d9:a6:41:d1:2a:79:d5:eb:0f:
                    f4:36:a1:a3:7d:39:45:82:74:4d:c9:54:a5:a4:98:
                    71:f3:96:cb:57:ff:3b:74:b7:5d:66:37:63:aa:03:
                    de:61:3b:93:ec:98:0e:41:03:e5:6d:50:ab:e9:c2:
                    72:ff:56:ce:88:cd:b4:b2:ac:e7:e8:8c:e7:63:b7:
                    61:81:7a:c5:9d:77:f5:39:51:a2:10:33:07:7a:2d:
                    70:de:62:3a:55:81:41:76:9a:22:70:18:39:e1:7c:
                    2b:97
                Exponent: 65537 (0x10001)
        X509v3 extensions:
            X509v3 Subject Alternative Name: 
                DNS:*.example.com, DNS:example.com, DNS:localhost, DNS:127.0.0.1
    Signature Algorithm: sha256WithRSAEncryption
         14:e2:f1:c5:21:a0:eb:e1:42:e3:b4:7f:57:15:e4:9a:37:9a:
         7c:61:ae:cd:f8:1f:63:67:85:08:23:ff:7b:4c:df:dc:fd:2a:
         b5:45:64:6b:79:d6:e6:6c:0f:b5:2e:3b:10:1e:fc:ad:a8:54:
         96:d0:62:b8:56:67:e5:b7:1d:93:b9:12:15:d0:b1:9c:5a:56:
         70:75:9b:d5:e0:dc:59:97:07:c1:da:81:42:84:df:53:db:6b:
         a8:e8:47:df:5d:7a:8e:fb:95:07:de:0f:18:65:ee:86:a6:8d:
         68:bb:94:b3:2f:f5:1b:91:60:db:9a:02:50:46:be:98:a5:0c:
         4a:6c:48:e0:8e:ea:31:3f:95:df:73:e7:73:fa:d9:5d:e5:79:
         4e:4f:91:8a:4a:13:27:a0:c9:24:87:27:ce:3c:b7:3e:15:17:
         a1:e1:cc:2d:60:ae:37:0c:eb:02:b2:a5:be:57:30:03:79:3b:
         83:1a:b6:c2:85:bf:8f:94:93:de:cf:5d:cc:df:7f:1b:b7:2d:
         92:0b:4f:cc:af:56:43:00:91:2f:35:5a:9f:e7:78:61:9b:8a:
         4f:c1:95:a5:c9:14:d9:38:27:ac:9c:28:32:85:72:c3:68:67:
         c3:37:37:8f:76:cd:33:59:ad:c5:6d:00:26:b2:b3:25:54:b5:
         38:76:a0:ef
-----BEGIN CERTIFICATE-----
MIIDKjCCAhKgAwIBAgIBADANBgkqhkiG9w0BAQsFADA4MQswCQYDVQQGEwJDTjER
MA8GA1UECgwIS294IEluYy4xFjAUBgNVBAMMDUtveCBHbG9iYWwgQ0EwHhcNMTcw
OTAyMTE1NjUxWhcNMjcwODMxMTE1NjUxWjA4MQswCQYDVQQGEwJDTjERMA8GA1UE
CgwIS294IEluYy4xFjAUBgNVBAMMDSouZXhhbXBsZS5jb20wggEiMA0GCSqGSIb3
DQEBAQUAA4IBDwAwggEKAoIBAQCeXG40g3GPcunsLy8rXJip5iF3KnaQnGD1+JrD
GUDgykMerQr9DDe+q1DLAmZta6BqCwEgrpxT2y7UO6a35PE5MdOlfgZjwEUllE53
j4aKEw+gsvxOxK7lb27HTy3rAEdFTBkCLw8GsE95ZIqDstQz7GN7giESCZdEiUKT
lg3XGgGymcxauSi+gNnTxL1Sr9PbJM8oCZJzj0E7SNmmQdEqedXrD/Q2oaN9OUWC
dE3JVKWkmHHzlstX/zt0t11mN2OqA95hO5PsmA5BA+VtUKvpwnL/Vs6IzbSyrOfo
jOdjt2GBesWdd/U5UaIQMwd6LXDeYjpVgUF2miJwGDnhfCuXAgMBAAGjPzA9MDsG
A1UdEQQ0MDKCDSouZXhhbXBsZS5jb22CC2V4YW1wbGUuY29tgglsb2NhbGhvc3SC
CTEyNy4wLjAuMTANBgkqhkiG9w0BAQsFAAOCAQEAFOLxxSGg6+FC47R/VxXkmjea
fGGuzfgfY2eFCCP/e0zf3P0qtUVka3nW5mwPtS47EB78rahUltBiuFZn5bcdk7kS
FdCxnFpWcHWb1eDcWZcHwdqBQoTfU9trqOhH3116jvuVB94PGGXuhqaNaLuUsy/1
G5Fg25oCUEa+mKUMSmxI4I7qMT+V33Pnc/rZXeV5Tk+RikoTJ6DJJIcnzjy3PhUX
oeHMLWCuNwzrArKlvlcwA3k7gxq2woW/j5ST3s9dzN9/G7ctkgtPzK9WQwCRLzVa
n+d4YZuKT8GVpckU2TgnrJwoMoVyw2hnwzc3j3bNM1mtxW0AJrKzJVS1OHag7w==
-----END CERTIFICATE-----
